target datalayout = "e-m:e-p270:32:32-p271:32:32-p272:64:64-i64:64-i128:128-f80:128-n8:16:32:64-S128"
target triple = "x86_64-pc-linux-gnu"

; Function Attrs: inlinehint nounwind uwtable
define internal void @store32(ptr noundef %0, i32 noundef %1) #2 {
  %3 = alloca ptr, align 8
  %4 = alloca i32, align 4
  store ptr %0, ptr %3, align 8, !tbaa !10
  store i32 %1, ptr %4, align 4, !tbaa !8
  %5 = load ptr, ptr %3, align 8, !tbaa !10
  call void @llvm.memcpy.p0.p0.i64(ptr align 1 %5, ptr align 4 %4, i64 4, i1 false)
  ret void
}

; Function Attrs: inlinehint nounwind uwtable
define internal i32 @__bswap_32(i32 noundef %0) #2 {
  %2 = alloca i32, align 4
  store i32 %0, ptr %2, align 4, !tbaa !8
  %3 = load i32, ptr %2, align 4, !tbaa !8
  %4 = and i32 %3, -16777216
  %5 = lshr i32 %4, 24
  %6 = load i32, ptr %2, align 4, !tbaa !8
  %7 = and i32 %6, 16711680
  %8 = lshr i32 %7, 8
  %9 = or i32 %5, %8
  %10 = load i32, ptr %2, align 4, !tbaa !8
  %11 = and i32 %10, 65280
  %12 = shl i32 %11, 8
  %13 = or i32 %9, %12
  %14 = load i32, ptr %2, align 4, !tbaa !8
  %15 = and i32 %14, 255
  %16 = shl i32 %15, 24
  %17 = or i32 %13, %16
  ret i32 %17
}

; Function Attrs: nounwind uwtable
define hidden void @python_hashlib_Hacl_Hash_SHA1_finish(ptr noundef %0, ptr noundef %1) #0 {
  %3 = alloca ptr, align 8
  %4 = alloca ptr, align 8
  %5 = alloca i32, align 4
  store ptr %0, ptr %3, align 8, !tbaa !3
  store ptr %1, ptr %4, align 8, !tbaa !10
  br label %6

6:                                                ; preds = %2
  call void @llvm.lifetime.start.p0(i64 4, ptr %5) #8
  store i32 0, ptr %5, align 4, !tbaa !8
  %7 = load ptr, ptr %4, align 8, !tbaa !10
  %8 = load i32, ptr %5, align 4, !tbaa !8
  %9 = mul i32 %8, 4
  %10 = zext i32 %9 to i64
  %11 = getelementptr i8, ptr %7, i64 %10
  %12 = load ptr, ptr %3, align 8, !tbaa !3
  %13 = load i32, ptr %5, align 4, !tbaa !8
  %14 = zext i32 %13 to i64
  %15 = getelementptr i32, ptr %12, i64 %14
  %16 = load i32, ptr %15, align 4, !tbaa !8
  %17 = call i32 @__bswap_32(i32 noundef %16)
  call void @store32(ptr noundef %11, i32 noundef %17)
  %18 = load i32, ptr %5, align 4, !tbaa !8
  %19 = add i32 %18, 1
  store i32 %19, ptr %5, align 4, !tbaa !8
  %20 = load ptr, ptr %4, align 8, !tbaa !10
  %21 = load i32, ptr %5, align 4, !tbaa !8
  %22 = mul i32 %21, 4
  %23 = zext i32 %22 to i64
  %24 = getelementptr i8, ptr %20, i64 %23
  %25 = load ptr, ptr %3, align 8, !tbaa !3
  %26 = load i32, ptr %5, align 4, !tbaa !8
  %27 = zext i32 %26 to i64
  %28 = getelementptr i32, ptr %25, i64 %27
  %29 = load i32, ptr %28, align 4, !tbaa !8
  %30 = call i32 @__bswap_32(i32 noundef %29)
  call void @store32(ptr noundef %24, i32 noundef %30)
  %31 = load i32, ptr %5, align 4, !tbaa !8
  %32 = add i32 %31, 1
  store i32 %32, ptr %5, align 4, !tbaa !8
  %33 = load ptr, ptr %4, align 8, !tbaa !10
  %34 = load i32, ptr %5, align 4, !tbaa !8
  %35 = mul i32 %34, 4
  %36 = zext i32 %35 to i64
  %37 = getelementptr i8, ptr %33, i64 %36
  %38 = load ptr, ptr %3, align 8, !tbaa !3
  %39 = load i32, ptr %5, align 4, !tbaa !8
  %40 = zext i32 %39 to i64
  %41 = getelementptr i32, ptr %38, i64 %40
  %42 = load i32, ptr %41, align 4, !tbaa !8
  %43 = call i32 @__bswap_32(i32 noundef %42)
  call void @store32(ptr noundef %37, i32 noundef %43)
  %44 = load i32, ptr %5, align 4, !tbaa !8
  %45 = add i32 %44, 1
  store i32 %45, ptr %5, align 4, !tbaa !8
  %46 = load ptr, ptr %4, align 8, !tbaa !10
  %47 = load i32, ptr %5, align 4, !tbaa !8
  %48 = mul i32 %47, 4
  %49 = zext i32 %48 to i64
  %50 = getelementptr i8, ptr %46, i64 %49
  %51 = load ptr, ptr %3, align 8, !tbaa !3
  %52 = load i32, ptr %5, align 4, !tbaa !8
  %53 = zext i32 %52 to i64
  %54 = getelementptr i32, ptr %51, i64 %53
  %55 = load i32, ptr %54, align 4, !tbaa !8
  %56 = call i32 @__bswap_32(i32 noundef %55)
  call void @store32(ptr noundef %50, i32 noundef %56)
  %57 = load i32, ptr %5, align 4, !tbaa !8
  %58 = add i32 %57, 1
  store i32 %58, ptr %5, align 4, !tbaa !8
  %59 = load ptr, ptr %4, align 8, !tbaa !10
  %60 = load i32, ptr %5, align 4, !tbaa !8
  %61 = mul i32 %60, 4
  %62 = zext i32 %61 to i64
  %63 = getelementptr i8, ptr %59, i64 %62
  %64 = load ptr, ptr %3, align 8, !tbaa !3
  %65 = load i32, ptr %5, align 4, !tbaa !8
  %66 = zext i32 %65 to i64
  %67 = getelementptr i32, ptr %64, i64 %66
  %68 = load i32, ptr %67, align 4, !tbaa !8
  %69 = call i32 @__bswap_32(i32 noundef %68)
  call void @store32(ptr noundef %63, i32 noundef %69)
  %70 = load i32, ptr %5, align 4, !tbaa !8
  %71 = add i32 %70, 1
  store i32 %71, ptr %5, align 4, !tbaa !8
  call void @llvm.lifetime.end.p0(i64 4, ptr %5) #8
  br label %72

72:                                               ; preds = %6
  ret void
}