; Function Attrs: mustprogress nofree norecurse nosync nounwind willreturn memory(argmem: readwrite) uwtable
define hidden void @python_hashlib_Hacl_Hash_SHA1_finish(ptr noundef readonly captures(none) %0, ptr noundef writeonly captures(none) initializes((0, 20)) %1) local_unnamed_addr #2 {
  %3 = load i32, ptr %0, align 4, !tbaa !3
  %4 = tail call noundef i32 @llvm.bswap.i32(i32 %3)
  store i32 %4, ptr %1, align 1
  %5 = getelementptr i8, ptr %1, i64 4
  %6 = getelementptr i8, ptr %0, i64 4
  %7 = load i32, ptr %6, align 4, !tbaa !3
  %8 = tail call noundef i32 @llvm.bswap.i32(i32 %7)
  store i32 %8, ptr %5, align 1
  %9 = getelementptr i8, ptr %1, i64 8
  %10 = getelementptr i8, ptr %0, i64 8
  %11 = load i32, ptr %10, align 4, !tbaa !3
  %12 = tail call noundef i32 @llvm.bswap.i32(i32 %11)
  store i32 %12, ptr %9, align 1
  %13 = getelementptr i8, ptr %1, i64 12
  %14 = getelementptr i8, ptr %0, i64 12
  %15 = load i32, ptr %14, align 4, !tbaa !3
  %16 = tail call noundef i32 @llvm.bswap.i32(i32 %15)
  store i32 %16, ptr %13, align 1
  %17 = getelementptr i8, ptr %1, i64 16
  %18 = getelementptr i8, ptr %0, i64 16
  %19 = load i32, ptr %18, align 4, !tbaa !3
  %20 = tail call noundef i32 @llvm.bswap.i32(i32 %19)
  store i32 %20, ptr %17, align 1
  ret void
}